target datalayout = "e-m:e-p270:32:32-p271:32:32-p272:64:64-i64:64-i128:128-f80:128-n8:16:32:64-S128"
target triple = "x86_64-pc-linux-gnu"

%struct.__mm_loadl_epi64_struct = type { i64 }
%struct.__mm_storel_epi64_struct = type { i64 }
%struct.__loadu_si128 = type { <2 x i64> }
%struct.__storeu_si128 = type { <2 x i64> }

; Function Attrs: alwaysinline nounwind uwtable
define internal <2 x i64> @_mm_srli_epi64(<2 x i64> noundef %0, i32 noundef %1) #3 {
  %3 = alloca <2 x i64>, align 16
  %4 = alloca i32, align 4
  store <2 x i64> %0, ptr %3, align 16, !tbaa !11
  store i32 %1, ptr %4, align 4, !tbaa !9
  %5 = load <2 x i64>, ptr %3, align 16, !tbaa !11
  %6 = load i32, ptr %4, align 4, !tbaa !9
  %7 = call <2 x i64> @llvm.x86.sse2.psrli.q(<2 x i64> %5, i32 %6)
  ret <2 x i64> %7
}

; Function Attrs: alwaysinline nounwind uwtable
define internal void @_mm_storel_epi64(ptr noundef %0, <2 x i64> noundef %1) #3 {
  %3 = alloca ptr, align 8
  %4 = alloca <2 x i64>, align 16
  store ptr %0, ptr %3, align 8, !tbaa !3
  store <2 x i64> %1, ptr %4, align 16, !tbaa !11
  %5 = load <2 x i64>, ptr %4, align 16, !tbaa !11
  %6 = extractelement <2 x i64> %5, i32 0
  %7 = load ptr, ptr %3, align 8, !tbaa !3
  %8 = getelementptr inbounds nuw %struct.__mm_storel_epi64_struct, ptr %7, i32 0, i32 0
  store i64 %6, ptr %8, align 1, !tbaa !11
  ret void
}

; Function Attrs: alwaysinline nounwind uwtable
define internal <2 x i64> @_mm_loadl_epi64(ptr noundef %0) #3 {
  %2 = alloca ptr, align 8
  %3 = alloca <2 x i64>, align 16
  store ptr %0, ptr %2, align 8, !tbaa !3
  %4 = load ptr, ptr %2, align 8, !tbaa !3
  %5 = getelementptr inbounds nuw %struct.__mm_loadl_epi64_struct, ptr %4, i32 0, i32 0
  %6 = load i64, ptr %5, align 1, !tbaa !11
  %7 = insertelement <2 x i64> poison, i64 %6, i32 0
  %8 = insertelement <2 x i64> %7, i64 0, i32 1
  store <2 x i64> %8, ptr %3, align 16, !tbaa !11
  %9 = load <2 x i64>, ptr %3, align 16, !tbaa !11
  ret <2 x i64> %9
}

; Function Attrs: alwaysinline nounwind uwtable
define internal <2 x i64> @_mm_set_epi32(i32 noundef %0, i32 noundef %1, i32 noundef %2, i32 noundef %3) #3 {
  %5 = alloca i32, align 4
  %6 = alloca i32, align 4
  %7 = alloca i32, align 4
  %8 = alloca i32, align 4
  %9 = alloca <4 x i32>, align 16
  store i32 %0, ptr %5, align 4, !tbaa !9
  store i32 %1, ptr %6, align 4, !tbaa !9
  store i32 %2, ptr %7, align 4, !tbaa !9
  store i32 %3, ptr %8, align 4, !tbaa !9
  %10 = load i32, ptr %8, align 4, !tbaa !9
  %11 = insertelement <4 x i32> poison, i32 %10, i32 0
  %12 = load i32, ptr %7, align 4, !tbaa !9
  %13 = insertelement <4 x i32> %11, i32 %12, i32 1
  %14 = load i32, ptr %6, align 4, !tbaa !9
  %15 = insertelement <4 x i32> %13, i32 %14, i32 2
  %16 = load i32, ptr %5, align 4, !tbaa !9
  %17 = insertelement <4 x i32> %15, i32 %16, i32 3
  store <4 x i32> %17, ptr %9, align 16, !tbaa !11
  %18 = load <4 x i32>, ptr %9, align 16, !tbaa !11
  %19 = bitcast <4 x i32> %18 to <2 x i64>
  ret <2 x i64> %19
}

; Function Attrs: alwaysinline nounwind uwtable
define internal void @_mm_storeu_si128(ptr noundef %0, <2 x i64> noundef %1) #3 {
  %3 = alloca ptr, align 8
  %4 = alloca <2 x i64>, align 16
  store ptr %0, ptr %3, align 8, !tbaa !3
  store <2 x i64> %1, ptr %4, align 16, !tbaa !11
  %5 = load <2 x i64>, ptr %4, align 16, !tbaa !11
  %6 = load ptr, ptr %3, align 8, !tbaa !3
  %7 = getelementptr inbounds nuw %struct.__storeu_si128, ptr %6, i32 0, i32 0
  store <2 x i64> %5, ptr %7, align 1, !tbaa !11
  ret void
}

; Function Attrs: alwaysinline nounwind uwtable
define internal <2 x i64> @_mm_add_epi8(<2 x i64> noundef %0, <2 x i64> noundef %1) #3 {
  %3 = alloca <2 x i64>, align 16
  %4 = alloca <2 x i64>, align 16
  store <2 x i64> %0, ptr %3, align 16, !tbaa !11
  store <2 x i64> %1, ptr %4, align 16, !tbaa !11
  %5 = load <2 x i64>, ptr %3, align 16, !tbaa !11
  %6 = bitcast <2 x i64> %5 to <16 x i8>
  %7 = load <2 x i64>, ptr %4, align 16, !tbaa !11
  %8 = bitcast <2 x i64> %7 to <16 x i8>
  %9 = add <16 x i8> %6, %8
  %10 = bitcast <16 x i8> %9 to <2 x i64>
  ret <2 x i64> %10
}

; Function Attrs: alwaysinline nounwind uwtable
define internal <2 x i64> @_mm_loadu_si128(ptr noundef %0) #3 {
  %2 = alloca ptr, align 8
  store ptr %0, ptr %2, align 8, !tbaa !3
  %3 = load ptr, ptr %2, align 8, !tbaa !3
  %4 = getelementptr inbounds nuw %struct.__loadu_si128, ptr %3, i32 0, i32 0
  %5 = load <2 x i64>, ptr %4, align 1, !tbaa !11
  ret <2 x i64> %5
}

; Function Attrs: nounwind uwtable
define internal void @HorizontalUnfilter_SSE2(ptr noundef %0, ptr noundef %1, ptr noundef %2, i32 noundef %3) #1 {
  %5 = alloca ptr, align 8
  %6 = alloca ptr, align 8
  %7 = alloca ptr, align 8
  %8 = alloca i32, align 4
  %9 = alloca i32, align 4
  %10 = alloca <2 x i64>, align 16
  %11 = alloca i32, align 4
  %12 = alloca <2 x i64>, align 16
  %13 = alloca <2 x i64>, align 16
  %14 = alloca <2 x i64>, align 16
  %15 = alloca <2 x i64>, align 16
  %16 = alloca <2 x i64>, align 16
  %17 = alloca <2 x i64>, align 16
  %18 = alloca <2 x i64>, align 16
  %19 = alloca <2 x i64>, align 16
  store ptr %0, ptr %5, align 8, !tbaa !7
  store ptr %1, ptr %6, align 8, !tbaa !7
  store ptr %2, ptr %7, align 8, !tbaa !7
  store i32 %3, ptr %8, align 4, !tbaa !9
  call void @llvm.lifetime.start.p0(i64 4, ptr %9) #6
  call void @llvm.lifetime.start.p0(i64 16, ptr %10) #6
  %20 = load ptr, ptr %6, align 8, !tbaa !7
  %21 = getelementptr inbounds i8, ptr %20, i64 0
  %22 = load i8, ptr %21, align 1, !tbaa !11
  %23 = zext i8 %22 to i32
  %24 = load ptr, ptr %5, align 8, !tbaa !7
  %25 = icmp eq ptr %24, null
  br i1 %25, label %26, label %27

26:                                               ; preds = %4
  br label %32

27:                                               ; preds = %4
  %28 = load ptr, ptr %5, align 8, !tbaa !7
  %29 = getelementptr inbounds i8, ptr %28, i64 0
  %30 = load i8, ptr %29, align 1, !tbaa !11
  %31 = zext i8 %30 to i32
  br label %32

32:                                               ; preds = %27, %26
  %33 = phi i32 [ 0, %26 ], [ %31, %27 ]
  %34 = add nsw i32 %23, %33
  %35 = trunc i32 %34 to i8
  %36 = load ptr, ptr %7, align 8, !tbaa !7
  %37 = getelementptr inbounds i8, ptr %36, i64 0
  store i8 %35, ptr %37, align 1, !tbaa !11
  %38 = load i32, ptr %8, align 4, !tbaa !9
  %39 = icmp sle i32 %38, 1
  br i1 %39, label %40, label %41

40:                                               ; preds = %32
  store i32 1, ptr %11, align 4
  br label %121

41:                                               ; preds = %32
  %42 = load ptr, ptr %7, align 8, !tbaa !7
  %43 = getelementptr inbounds i8, ptr %42, i64 0
  %44 = load i8, ptr %43, align 1, !tbaa !11
  %45 = zext i8 %44 to i32
  %46 = call <2 x i64> @_mm_set_epi32(i32 noundef 0, i32 noundef 0, i32 noundef 0, i32 noundef %45)
  store <2 x i64> %46, ptr %10, align 16, !tbaa !11
  store i32 1, ptr %9, align 4, !tbaa !9
  br label %47

47:                                               ; preds = %89, %41
  %48 = load i32, ptr %9, align 4, !tbaa !9
  %49 = add nsw i32 %48, 8
  %50 = load i32, ptr %8, align 4, !tbaa !9
  %51 = icmp sle i32 %49, %50
  br i1 %51, label %52, label %92

52:                                               ; preds = %47
  call void @llvm.lifetime.start.p0(i64 16, ptr %12) #6
  %53 = load ptr, ptr %6, align 8, !tbaa !7
  %54 = load i32, ptr %9, align 4, !tbaa !9
  %55 = sext i32 %54 to i64
  %56 = getelementptr inbounds i8, ptr %53, i64 %55
  %57 = call <2 x i64> @_mm_loadl_epi64(ptr noundef %56)
  store <2 x i64> %57, ptr %12, align 16, !tbaa !11
  call void @llvm.lifetime.start.p0(i64 16, ptr %13) #6
  %58 = load <2 x i64>, ptr %12, align 16, !tbaa !11
  %59 = load <2 x i64>, ptr %10, align 16, !tbaa !11
  %60 = call <2 x i64> @_mm_add_epi8(<2 x i64> noundef %58, <2 x i64> noundef %59)
  store <2 x i64> %60, ptr %13, align 16, !tbaa !11
  call void @llvm.lifetime.start.p0(i64 16, ptr %14) #6
  %61 = load <2 x i64>, ptr %13, align 16, !tbaa !11
  %62 = bitcast <2 x i64> %61 to <16 x i8>
  %63 = shufflevector <16 x i8> zeroinitializer, <16 x i8> %62, <16 x i32> <i32 15, i32 16, i32 17, i32 18, i32 19, i32 20, i32 21, i32 22, i32 23, i32 24, i32 25, i32 26, i32 27, i32 28, i32 29, i32 30>
  %64 = bitcast <16 x i8> %63 to <2 x i64>
  store <2 x i64> %64, ptr %14, align 16, !tbaa !11
  call void @llvm.lifetime.start.p0(i64 16, ptr %15) #6
  %65 = load <2 x i64>, ptr %13, align 16, !tbaa !11
  %66 = load <2 x i64>, ptr %14, align 16, !tbaa !11
  %67 = call <2 x i64> @_mm_add_epi8(<2 x i64> noundef %65, <2 x i64> noundef %66)
  store <2 x i64> %67, ptr %15, align 16, !tbaa !11
  call void @llvm.lifetime.start.p0(i64 16, ptr %16) #6
  %68 = load <2 x i64>, ptr %15, align 16, !tbaa !11
  %69 = bitcast <2 x i64> %68 to <16 x i8>
  %70 = shufflevector <16 x i8> zeroinitializer, <16 x i8> %69, <16 x i32> <i32 14, i32 15, i32 16, i32 17, i32 18, i32 19, i32 20, i32 21, i32 22, i32 23, i32 24, i32 25, i32 26, i32 27, i32 28, i32 29>
  %71 = bitcast <16 x i8> %70 to <2 x i64>
  store <2 x i64> %71, ptr %16, align 16, !tbaa !11
  call void @llvm.lifetime.start.p0(i64 16, ptr %17) #6
  %72 = load <2 x i64>, ptr %15, align 16, !tbaa !11
  %73 = load <2 x i64>, ptr %16, align 16, !tbaa !11
  %74 = call <2 x i64> @_mm_add_epi8(<2 x i64> noundef %72, <2 x i64> noundef %73)
  store <2 x i64> %74, ptr %17, align 16, !tbaa !11
  call void @llvm.lifetime.start.p0(i64 16, ptr %18) #6
  %75 = load <2 x i64>, ptr %17, align 16, !tbaa !11
  %76 = bitcast <2 x i64> %75 to <16 x i8>
  %77 = shufflevector <16 x i8> zeroinitializer, <16 x i8> %76, <16 x i32> <i32 12, i32 13, i32 14, i32 15, i32 16, i32 17, i32 18, i32 19, i32 20, i32 21, i32 22, i32 23, i32 24, i32 25, i32 26, i32 27>
  %78 = bitcast <16 x i8> %77 to <2 x i64>
  store <2 x i64> %78, ptr %18, align 16, !tbaa !11
  call void @llvm.lifetime.start.p0(i64 16, ptr %19) #6
  %79 = load <2 x i64>, ptr %17, align 16, !tbaa !11
  %80 = load <2 x i64>, ptr %18, align 16, !tbaa !11
  %81 = call <2 x i64> @_mm_add_epi8(<2 x i64> noundef %79, <2 x i64> noundef %80)
  store <2 x i64> %81, ptr %19, align 16, !tbaa !11
  %82 = load ptr, ptr %7, align 8, !tbaa !7
  %83 = load i32, ptr %9, align 4, !tbaa !9
  %84 = sext i32 %83 to i64
  %85 = getelementptr inbounds i8, ptr %82, i64 %84
  %86 = load <2 x i64>, ptr %19, align 16, !tbaa !11
  call void @_mm_storel_epi64(ptr noundef %85, <2 x i64> noundef %86)
  %87 = load <2 x i64>, ptr %19, align 16, !tbaa !11
  %88 = call <2 x i64> @_mm_srli_epi64(<2 x i64> noundef %87, i32 noundef 56)
  store <2 x i64> %88, ptr %10, align 16, !tbaa !11
  call void @llvm.lifetime.end.p0(i64 16, ptr %19) #6
  call void @llvm.lifetime.end.p0(i64 16, ptr %18) #6
  call void @llvm.lifetime.end.p0(i64 16, ptr %17) #6
  call void @llvm.lifetime.end.p0(i64 16, ptr %16) #6
  call void @llvm.lifetime.end.p0(i64 16, ptr %15) #6
  call void @llvm.lifetime.end.p0(i64 16, ptr %14) #6
  call void @llvm.lifetime.end.p0(i64 16, ptr %13) #6
  call void @llvm.lifetime.end.p0(i64 16, ptr %12) #6
  br label %89

89:                                               ; preds = %52
  %90 = load i32, ptr %9, align 4, !tbaa !9
  %91 = add nsw i32 %90, 8
  store i32 %91, ptr %9, align 4, !tbaa !9
  br label %47, !llvm.loop !12

92:                                               ; preds = %47
  br label %93

93:                                               ; preds = %117, %92
  %94 = load i32, ptr %9, align 4, !tbaa !9
  %95 = load i32, ptr %8, align 4, !tbaa !9
  %96 = icmp slt i32 %94, %95
  br i1 %96, label %97, label %120

97:                                               ; preds = %93
  %98 = load ptr, ptr %6, align 8, !tbaa !7
  %99 = load i32, ptr %9, align 4, !tbaa !9
  %100 = sext i32 %99 to i64
  %101 = getelementptr inbounds i8, ptr %98, i64 %100
  %102 = load i8, ptr %101, align 1, !tbaa !11
  %103 = zext i8 %102 to i32
  %104 = load ptr, ptr %7, align 8, !tbaa !7
  %105 = load i32, ptr %9, align 4, !tbaa !9
  %106 = sub nsw i32 %105, 1
  %107 = sext i32 %106 to i64
  %108 = getelementptr inbounds i8, ptr %104, i64 %107
  %109 = load i8, ptr %108, align 1, !tbaa !11
  %110 = zext i8 %109 to i32
  %111 = add nsw i32 %103, %110
  %112 = trunc i32 %111 to i8
  %113 = load ptr, ptr %7, align 8, !tbaa !7
  %114 = load i32, ptr %9, align 4, !tbaa !9
  %115 = sext i32 %114 to i64
  %116 = getelementptr inbounds i8, ptr %113, i64 %115
  store i8 %112, ptr %116, align 1, !tbaa !11
  br label %117

117:                                              ; preds = %97
  %118 = load i32, ptr %9, align 4, !tbaa !9
  %119 = add nsw i32 %118, 1
  store i32 %119, ptr %9, align 4, !tbaa !9
  br label %93, !llvm.loop !14

120:                                              ; preds = %93
  store i32 0, ptr %11, align 4
  br label %121

121:                                              ; preds = %120, %40
  call void @llvm.lifetime.end.p0(i64 16, ptr %10) #6
  call void @llvm.lifetime.end.p0(i64 4, ptr %9) #6
  %122 = load i32, ptr %11, align 4
  switch i32 %122, label %124 [
    i32 0, label %123
    i32 1, label %123
  ]

123:                                              ; preds = %121, %121
  ret void

124:                                              ; preds = %121
  unreachable
}

; Function Attrs: nounwind uwtable
define internal void @VerticalUnfilter_SSE2(ptr noundef %0, ptr noundef %1, ptr noundef %2, i32 noundef %3) #1 {
  %5 = alloca ptr, align 8
  %6 = alloca ptr, align 8
  %7 = alloca ptr, align 8
  %8 = alloca i32, align 4
  %9 = alloca i32, align 4
  %10 = alloca i32, align 4
  %11 = alloca <2 x i64>, align 16
  %12 = alloca <2 x i64>, align 16
  %13 = alloca <2 x i64>, align 16
  %14 = alloca <2 x i64>, align 16
  %15 = alloca <2 x i64>, align 16
  %16 = alloca <2 x i64>, align 16
  store ptr %0, ptr %5, align 8, !tbaa !7
  store ptr %1, ptr %6, align 8, !tbaa !7
  store ptr %2, ptr %7, align 8, !tbaa !7
  store i32 %3, ptr %8, align 4, !tbaa !9
  %17 = load ptr, ptr %5, align 8, !tbaa !7
  %18 = icmp eq ptr %17, null
  br i1 %18, label %19, label %23

19:                                               ; preds = %4
  %20 = load ptr, ptr %6, align 8, !tbaa !7
  %21 = load ptr, ptr %7, align 8, !tbaa !7
  %22 = load i32, ptr %8, align 4, !tbaa !9
  call void @HorizontalUnfilter_SSE2(ptr noundef null, ptr noundef %20, ptr noundef %21, i32 noundef %22)
  br label %104

23:                                               ; preds = %4
  call void @llvm.lifetime.start.p0(i64 4, ptr %9) #6
  call void @llvm.lifetime.start.p0(i64 4, ptr %10) #6
  %24 = load i32, ptr %8, align 4, !tbaa !9
  %25 = and i32 %24, -32
  store i32 %25, ptr %10, align 4, !tbaa !9
  store i32 0, ptr %9, align 4, !tbaa !9
  br label %26

26:                                               ; preds = %73, %23
  %27 = load i32, ptr %9, align 4, !tbaa !9
  %28 = load i32, ptr %10, align 4, !tbaa !9
  %29 = icmp slt i32 %27, %28
  br i1 %29, label %30, label %76

30:                                               ; preds = %26
  call void @llvm.lifetime.start.p0(i64 16, ptr %11) #6
  %31 = load ptr, ptr %6, align 8, !tbaa !7
  %32 = load i32, ptr %9, align 4, !tbaa !9
  %33 = add nsw i32 %32, 0
  %34 = sext i32 %33 to i64
  %35 = getelementptr inbounds i8, ptr %31, i64 %34
  %36 = call <2 x i64> @_mm_loadu_si128(ptr noundef %35)
  store <2 x i64> %36, ptr %11, align 16, !tbaa !11
  call void @llvm.lifetime.start.p0(i64 16, ptr %12) #6
  %37 = load ptr, ptr %6, align 8, !tbaa !7
  %38 = load i32, ptr %9, align 4, !tbaa !9
  %39 = add nsw i32 %38, 16
  %40 = sext i32 %39 to i64
  %41 = getelementptr inbounds i8, ptr %37, i64 %40
  %42 = call <2 x i64> @_mm_loadu_si128(ptr noundef %41)
  store <2 x i64> %42, ptr %12, align 16, !tbaa !11
  call void @llvm.lifetime.start.p0(i64 16, ptr %13) #6
  %43 = load ptr, ptr %5, align 8, !tbaa !7
  %44 = load i32, ptr %9, align 4, !tbaa !9
  %45 = add nsw i32 %44, 0
  %46 = sext i32 %45 to i64
  %47 = getelementptr inbounds i8, ptr %43, i64 %46
  %48 = call <2 x i64> @_mm_loadu_si128(ptr noundef %47)
  store <2 x i64> %48, ptr %13, align 16, !tbaa !11
  call void @llvm.lifetime.start.p0(i64 16, ptr %14) #6
  %49 = load ptr, ptr %5, align 8, !tbaa !7
  %50 = load i32, ptr %9, align 4, !tbaa !9
  %51 = add nsw i32 %50, 16
  %52 = sext i32 %51 to i64
  %53 = getelementptr inbounds i8, ptr %49, i64 %52
  %54 = call <2 x i64> @_mm_loadu_si128(ptr noundef %53)
  store <2 x i64> %54, ptr %14, align 16, !tbaa !11
  call void @llvm.lifetime.start.p0(i64 16, ptr %15) #6
  %55 = load <2 x i64>, ptr %11, align 16, !tbaa !11
  %56 = load <2 x i64>, ptr %13, align 16, !tbaa !11
  %57 = call <2 x i64> @_mm_add_epi8(<2 x i64> noundef %55, <2 x i64> noundef %56)
  store <2 x i64> %57, ptr %15, align 16, !tbaa !11
  call void @llvm.lifetime.start.p0(i64 16, ptr %16) #6
  %58 = load <2 x i64>, ptr %12, align 16, !tbaa !11
  %59 = load <2 x i64>, ptr %14, align 16, !tbaa !11
  %60 = call <2 x i64> @_mm_add_epi8(<2 x i64> noundef %58, <2 x i64> noundef %59)
  store <2 x i64> %60, ptr %16, align 16, !tbaa !11
  %61 = load ptr, ptr %7, align 8, !tbaa !7
  %62 = load i32, ptr %9, align 4, !tbaa !9
  %63 = add nsw i32 %62, 0
  %64 = sext i32 %63 to i64
  %65 = getelementptr inbounds i8, ptr %61, i64 %64
  %66 = load <2 x i64>, ptr %15, align 16, !tbaa !11
  call void @_mm_storeu_si128(ptr noundef %65, <2 x i64> noundef %66)
  %67 = load ptr, ptr %7, align 8, !tbaa !7
  %68 = load i32, ptr %9, align 4, !tbaa !9
  %69 = add nsw i32 %68, 16
  %70 = sext i32 %69 to i64
  %71 = getelementptr inbounds i8, ptr %67, i64 %70
  %72 = load <2 x i64>, ptr %16, align 16, !tbaa !11
  call void @_mm_storeu_si128(ptr noundef %71, <2 x i64> noundef %72)
  call void @llvm.lifetime.end.p0(i64 16, ptr %16) #6
  call void @llvm.lifetime.end.p0(i64 16, ptr %15) #6
  call void @llvm.lifetime.end.p0(i64 16, ptr %14) #6
  call void @llvm.lifetime.end.p0(i64 16, ptr %13) #6
  call void @llvm.lifetime.end.p0(i64 16, ptr %12) #6
  call void @llvm.lifetime.end.p0(i64 16, ptr %11) #6
  br label %73

73:                                               ; preds = %30
  %74 = load i32, ptr %9, align 4, !tbaa !9
  %75 = add nsw i32 %74, 32
  store i32 %75, ptr %9, align 4, !tbaa !9
  br label %26, !llvm.loop !15

76:                                               ; preds = %26
  br label %77

77:                                               ; preds = %100, %76
  %78 = load i32, ptr %9, align 4, !tbaa !9
  %79 = load i32, ptr %8, align 4, !tbaa !9
  %80 = icmp slt i32 %78, %79
  br i1 %80, label %81, label %103

81:                                               ; preds = %77
  %82 = load ptr, ptr %6, align 8, !tbaa !7
  %83 = load i32, ptr %9, align 4, !tbaa !9
  %84 = sext i32 %83 to i64
  %85 = getelementptr inbounds i8, ptr %82, i64 %84
  %86 = load i8, ptr %85, align 1, !tbaa !11
  %87 = zext i8 %86 to i32
  %88 = load ptr, ptr %5, align 8, !tbaa !7
  %89 = load i32, ptr %9, align 4, !tbaa !9
  %90 = sext i32 %89 to i64
  %91 = getelementptr inbounds i8, ptr %88, i64 %90
  %92 = load i8, ptr %91, align 1, !tbaa !11
  %93 = zext i8 %92 to i32
  %94 = add nsw i32 %87, %93
  %95 = trunc i32 %94 to i8
  %96 = load ptr, ptr %7, align 8, !tbaa !7
  %97 = load i32, ptr %9, align 4, !tbaa !9
  %98 = sext i32 %97 to i64
  %99 = getelementptr inbounds i8, ptr %96, i64 %98
  store i8 %95, ptr %99, align 1, !tbaa !11
  br label %100

100:                                              ; preds = %81
  %101 = load i32, ptr %9, align 4, !tbaa !9
  %102 = add nsw i32 %101, 1
  store i32 %102, ptr %9, align 4, !tbaa !9
  br label %77, !llvm.loop !16

103:                                              ; preds = %77
  call void @llvm.lifetime.end.p0(i64 4, ptr %10) #6
  call void @llvm.lifetime.end.p0(i64 4, ptr %9) #6
  br label %104

104:                                              ; preds = %103, %19
  ret void
}