; Function Attrs: nofree norecurse nosync nounwind memory(argmem: readwrite) uwtable
define internal void @VerticalUnfilter_SSE2(ptr noundef readonly captures(address_is_null) %0, ptr noundef readonly captures(none) %1, ptr noundef captures(none) %2, i32 noundef %3) #1 {
  %5 = icmp eq ptr %0, null
  br i1 %5, label %6, label %38

6:                                                ; preds = %4
  %7 = load i8, ptr %1, align 1, !tbaa !7
  store i8 %7, ptr %2, align 1, !tbaa !7
  %8 = icmp slt i32 %3, 2
  br i1 %8, label %HorizontalUnfilter_SSE2.exit, label %9

9:                                                ; preds = %6
  %.not38.i = icmp samesign ult i32 %3, 9
  br i1 %.not38.i, label %.preheader.i, label %.lr.ph.preheader.i

.lr.ph.preheader.i:                               ; preds = %9
  %10 = zext i8 %7 to i32
  %11 = insertelement <4 x i32> <i32 poison, i32 0, i32 0, i32 0>, i32 %10, i64 0
  %12 = bitcast <4 x i32> %11 to <2 x i64>
  %13 = zext nneg i32 %3 to i64
  br label %.lr.ph.i

.preheader.loopexit.i:                            ; preds = %.lr.ph.i
  %14 = trunc nuw nsw i64 %indvars.iv.i to i32
  br label %.preheader.i

.preheader.i:                                     ; preds = %.preheader.loopexit.i, %9
  %.0.lcssa.i = phi i32 [ 1, %9 ], [ %14, %.preheader.loopexit.i ]
  %15 = icmp slt i32 %.0.lcssa.i, %3
  br i1 %15, label %.lr.ph42.preheader.i, label %HorizontalUnfilter_SSE2.exit

.lr.ph42.preheader.i:                             ; preds = %.preheader.i
  %16 = zext i32 %.0.lcssa.i to i64
  %wide.trip.count.i = zext nneg i32 %3 to i64
  %17 = getelementptr i8, ptr %2, i64 %16
  %scevgep = getelementptr i8, ptr %17, i64 -1
  %load_initial = load i8, ptr %scevgep, align 1
  br label %.lr.ph42.i

.lr.ph.i:                                         ; preds = %.lr.ph.i, %.lr.ph.preheader.i
  %indvars.iv43.i = phi i64 [ 1, %.lr.ph.preheader.i ], [ %indvars.iv.next44.i, %.lr.ph.i ]
  %indvars.iv.i = phi i64 [ 9, %.lr.ph.preheader.i ], [ %indvars.iv.next.i, %.lr.ph.i ]
  %.03439.i = phi <2 x i64> [ %12, %.lr.ph.preheader.i ], [ %33, %.lr.ph.i ]
  %18 = getelementptr inbounds nuw i8, ptr %1, i64 %indvars.iv43.i
  %19 = load i64, ptr %18, align 1, !tbaa !7
  %20 = insertelement <2 x i64> <i64 poison, i64 0>, i64 %19, i64 0
  %21 = bitcast <2 x i64> %20 to <16 x i8>
  %22 = bitcast <2 x i64> %.03439.i to <16 x i8>
  %23 = add <16 x i8> %21, %22
  %24 = shufflevector <16 x i8> <i8 poison, i8 poison, i8 poison, i8 poison, i8 poison, i8 poison, i8 poison, i8 poison, i8 poison, i8 poison, i8 poison, i8 poison, i8 poison, i8 poison, i8 poison, i8 0>, <16 x i8> %23, <16 x i32> <i32 15, i32 16, i32 17, i32 18, i32 19, i32 20, i32 21, i32 22, i32 23, i32 24, i32 25, i32 26, i32 27, i32 28, i32 29, i32 30>
  %25 = add <16 x i8> %24, %23
  %26 = shufflevector <16 x i8> <i8 poison, i8 poison, i8 poison, i8 poison, i8 poison, i8 poison, i8 poison, i8 poison, i8 poison, i8 poison, i8 poison, i8 poison, i8 poison, i8 poison, i8 0, i8 0>, <16 x i8> %25, <16 x i32> <i32 14, i32 15, i32 16, i32 17, i32 18, i32 19, i32 20, i32 21, i32 22, i32 23, i32 24, i32 25, i32 26, i32 27, i32 28, i32 29>
  %27 = add <16 x i8> %26, %25
  %28 = shufflevector <16 x i8> <i8 poison, i8 poison, i8 poison, i8 poison, i8 poison, i8 poison, i8 poison, i8 poison, i8 poison, i8 poison, i8 poison, i8 poison, i8 0, i8 0, i8 0, i8 0>, <16 x i8> %27, <16 x i32> <i32 12, i32 13, i32 14, i32 15, i32 16, i32 17, i32 18, i32 19, i32 20, i32 21, i32 22, i32 23, i32 24, i32 25, i32 26, i32 27>
  %29 = add <16 x i8> %28, %27
  %30 = bitcast <16 x i8> %29 to <2 x i64>
  %31 = getelementptr inbounds nuw i8, ptr %2, i64 %indvars.iv43.i
  %32 = extractelement <2 x i64> %30, i64 0
  store i64 %32, ptr %31, align 1, !tbaa !7
  %33 = lshr <2 x i64> %30, splat (i64 56)
  %indvars.iv.next.i = add nuw nsw i64 %indvars.iv.i, 8
  %.not.i = icmp samesign ugt i64 %indvars.iv.next.i, %13
  %indvars.iv.next44.i = add nuw nsw i64 %indvars.iv43.i, 8
  br i1 %.not.i, label %.preheader.loopexit.i, label %.lr.ph.i, !llvm.loop !8

.lr.ph42.i:                                       ; preds = %.lr.ph42.i, %.lr.ph42.preheader.i
  %store_forwarded = phi i8 [ %load_initial, %.lr.ph42.preheader.i ], [ %37, %.lr.ph42.i ]
  %indvars.iv48.i = phi i64 [ %16, %.lr.ph42.preheader.i ], [ %indvars.iv.next49.i, %.lr.ph42.i ]
  %34 = getelementptr inbounds nuw i8, ptr %1, i64 %indvars.iv48.i
  %35 = load i8, ptr %34, align 1, !tbaa !7
  %36 = getelementptr i8, ptr %2, i64 %indvars.iv48.i
  %37 = add i8 %store_forwarded, %35
  store i8 %37, ptr %36, align 1, !tbaa !7
  %indvars.iv.next49.i = add nuw nsw i64 %indvars.iv48.i, 1
  %exitcond.not.i = icmp eq i64 %indvars.iv.next49.i, %wide.trip.count.i
  br i1 %exitcond.not.i, label %HorizontalUnfilter_SSE2.exit, label %.lr.ph42.i, !llvm.loop !10

38:                                               ; preds = %4
  %39 = icmp sgt i32 %3, 31
  br i1 %39, label %.lr.ph.preheader, label %.preheader

.lr.ph.preheader:                                 ; preds = %38
  %40 = and i32 %3, 2147483616
  %41 = zext nneg i32 %40 to i64
  br label %.lr.ph

.preheader.loopexit:                              ; preds = %.lr.ph
  %42 = trunc nuw nsw i64 %indvars.iv.next to i32
  br label %.preheader

.preheader:                                       ; preds = %.preheader.loopexit, %38
  %.0.lcssa = phi i32 [ 0, %38 ], [ %42, %.preheader.loopexit ]
  %43 = icmp slt i32 %.0.lcssa, %3
  br i1 %43, label %.lr.ph38.preheader, label %HorizontalUnfilter_SSE2.exit

.lr.ph38.preheader:                               ; preds = %.preheader
  %44 = zext nneg i32 %.0.lcssa to i64
  %wide.trip.count = zext i32 %3 to i64
  br label %.lr.ph38

.lr.ph:                                           ; preds = %.lr.ph.preheader, %.lr.ph
  %indvars.iv = phi i64 [ 0, %.lr.ph.preheader ], [ %indvars.iv.next, %.lr.ph ]
  %45 = getelementptr inbounds nuw i8, ptr %1, i64 %indvars.iv
  %46 = load <16 x i8>, ptr %45, align 1, !tbaa !7
  %47 = or disjoint i64 %indvars.iv, 16
  %48 = getelementptr inbounds nuw i8, ptr %1, i64 %47
  %49 = load <16 x i8>, ptr %48, align 1, !tbaa !7
  %50 = getelementptr inbounds nuw i8, ptr %0, i64 %indvars.iv
  %51 = load <16 x i8>, ptr %50, align 1, !tbaa !7
  %52 = getelementptr inbounds nuw i8, ptr %0, i64 %47
  %53 = load <16 x i8>, ptr %52, align 1, !tbaa !7
  %54 = add <16 x i8> %51, %46
  %55 = add <16 x i8> %53, %49
  %56 = getelementptr inbounds nuw i8, ptr %2, i64 %indvars.iv
  store <16 x i8> %54, ptr %56, align 1, !tbaa !7
  %57 = getelementptr inbounds nuw i8, ptr %2, i64 %47
  store <16 x i8> %55, ptr %57, align 1, !tbaa !7
  %indvars.iv.next = add nuw nsw i64 %indvars.iv, 32
  %58 = icmp samesign ult i64 %indvars.iv.next, %41
  br i1 %58, label %.lr.ph, label %.preheader.loopexit, !llvm.loop !11

.lr.ph38:                                         ; preds = %.lr.ph38.preheader, %.lr.ph38
  %indvars.iv41 = phi i64 [ %44, %.lr.ph38.preheader ], [ %indvars.iv.next42, %.lr.ph38 ]
  %59 = getelementptr inbounds nuw i8, ptr %1, i64 %indvars.iv41
  %60 = load i8, ptr %59, align 1, !tbaa !7
  %61 = getelementptr inbounds nuw i8, ptr %0, i64 %indvars.iv41
  %62 = load i8, ptr %61, align 1, !tbaa !7
  %63 = add i8 %62, %60
  %64 = getelementptr inbounds nuw i8, ptr %2, i64 %indvars.iv41
  store i8 %63, ptr %64, align 1, !tbaa !7
  %indvars.iv.next42 = add nuw nsw i64 %indvars.iv41, 1
  %exitcond.not = icmp eq i64 %indvars.iv.next42, %wide.trip.count
  br i1 %exitcond.not, label %HorizontalUnfilter_SSE2.exit, label %.lr.ph38, !llvm.loop !12

HorizontalUnfilter_SSE2.exit:                     ; preds = %.lr.ph38, %.lr.ph42.i, %.preheader, %.preheader.i, %6
  ret void
}